target datalayout = "e-m:e-p270:32:32-p271:32:32-p272:64:64-i64:64-i128:128-f80:128-n8:16:32:64-S128"
target triple = "x86_64-pc-linux-gnu"

%struct._zend_ssa_range = type { i64, i64, i8, i8 }

@stderr = external global ptr, align 8
@.str.121 = private unnamed_addr constant [8 x i8] c" RANGE[\00", align 1
@.str.122 = private unnamed_addr constant [5 x i8] c"--..\00", align 1
@.str.123 = private unnamed_addr constant [6 x i8] c"MIN..\00", align 1
@.str.124 = private unnamed_addr constant [6 x i8] c"%ld..\00", align 1
@.str.125 = private unnamed_addr constant [4 x i8] c"++]\00", align 1
@.str.126 = private unnamed_addr constant [5 x i8] c"MAX]\00", align 1
@.str.127 = private unnamed_addr constant [5 x i8] c"%ld]\00", align 1

; Function Attrs: nounwind uwtable
define internal void @zend_dump_range(ptr noundef %0) #0 {
  %2 = alloca ptr, align 8
  store ptr %0, ptr %2, align 8
  %3 = load ptr, ptr %2, align 8
  %4 = getelementptr inbounds %struct._zend_ssa_range, ptr %3, i32 0, i32 2
  %5 = load i8, ptr %4, align 8
  %6 = trunc i8 %5 to i1
  br i1 %6, label %7, label %13

7:                                                ; preds = %1
  %8 = load ptr, ptr %2, align 8
  %9 = getelementptr inbounds %struct._zend_ssa_range, ptr %8, i32 0, i32 3
  %10 = load i8, ptr %9, align 1
  %11 = trunc i8 %10 to i1
  br i1 %11, label %12, label %13

12:                                               ; preds = %7
  br label %61

13:                                               ; preds = %7, %1
  %14 = load ptr, ptr @stderr, align 8
  %15 = call i32 (ptr, ptr, ...) @fprintf(ptr noundef %14, ptr noundef @.str.121) #4
  %16 = load ptr, ptr %2, align 8
  %17 = getelementptr inbounds %struct._zend_ssa_range, ptr %16, i32 0, i32 2
  %18 = load i8, ptr %17, align 8
  %19 = trunc i8 %18 to i1
  br i1 %19, label %20, label %23

20:                                               ; preds = %13
  %21 = load ptr, ptr @stderr, align 8
  %22 = call i32 (ptr, ptr, ...) @fprintf(ptr noundef %21, ptr noundef @.str.122) #4
  br label %38

23:                                               ; preds = %13
  %24 = load ptr, ptr %2, align 8
  %25 = getelementptr inbounds %struct._zend_ssa_range, ptr %24, i32 0, i32 0
  %26 = load i64, ptr %25, align 8
  %27 = icmp eq i64 %26, -9223372036854775808
  br i1 %27, label %28, label %31

28:                                               ; preds = %23
  %29 = load ptr, ptr @stderr, align 8
  %30 = call i32 (ptr, ptr, ...) @fprintf(ptr noundef %29, ptr noundef @.str.123) #4
  br label %37

31:                                               ; preds = %23
  %32 = load ptr, ptr @stderr, align 8
  %33 = load ptr, ptr %2, align 8
  %34 = getelementptr inbounds %struct._zend_ssa_range, ptr %33, i32 0, i32 0
  %35 = load i64, ptr %34, align 8
  %36 = call i32 (ptr, ptr, ...) @fprintf(ptr noundef %32, ptr noundef @.str.124, i64 noundef %35) #4
  br label %37

37:                                               ; preds = %31, %28
  br label %38

38:                                               ; preds = %37, %20
  %39 = load ptr, ptr %2, align 8
  %40 = getelementptr inbounds %struct._zend_ssa_range, ptr %39, i32 0, i32 3
  %41 = load i8, ptr %40, align 1
  %42 = trunc i8 %41 to i1
  br i1 %42, label %43, label %46

43:                                               ; preds = %38
  %44 = load ptr, ptr @stderr, align 8
  %45 = call i32 (ptr, ptr, ...) @fprintf(ptr noundef %44, ptr noundef @.str.125) #4
  br label %61

46:                                               ; preds = %38
  %47 = load ptr, ptr %2, align 8
  %48 = getelementptr inbounds %struct._zend_ssa_range, ptr %47, i32 0, i32 1
  %49 = load i64, ptr %48, align 8
  %50 = icmp eq i64 %49, 9223372036854775807
  br i1 %50, label %51, label %54

51:                                               ; preds = %46
  %52 = load ptr, ptr @stderr, align 8
  %53 = call i32 (ptr, ptr, ...) @fprintf(ptr noundef %52, ptr noundef @.str.126) #4
  br label %60

54:                                               ; preds = %46
  %55 = load ptr, ptr @stderr, align 8
  %56 = load ptr, ptr %2, align 8
  %57 = getelementptr inbounds %struct._zend_ssa_range, ptr %56, i32 0, i32 1
  %58 = load i64, ptr %57, align 8
  %59 = call i32 (ptr, ptr, ...) @fprintf(ptr noundef %55, ptr noundef @.str.127, i64 noundef %58) #4
  br label %60

60:                                               ; preds = %54, %51
  br label %61

61:                                               ; preds = %60, %43, %12
  ret void
}