; Function Attrs: nofree nounwind uwtable
define internal fastcc void @zend_dump_range(ptr nocapture noundef readonly %0) unnamed_addr #3 {
  %2 = getelementptr inbounds i8, ptr %0, i64 16
  %3 = load i8, ptr %2, align 8
  %4 = and i8 %3, 1
  %.not = icmp eq i8 %4, 0
  br i1 %.not, label %9, label %5

5:                                                ; preds = %1
  %6 = getelementptr inbounds i8, ptr %0, i64 17
  %7 = load i8, ptr %6, align 1
  %8 = and i8 %7, 1
  %.not9 = icmp eq i8 %8, 0
  br i1 %.not9, label %9, label %41

9:                                                ; preds = %5, %1
  %10 = load ptr, ptr @stderr, align 8
  %11 = tail call i64 @fwrite(ptr nonnull @.str.121, i64 7, i64 1, ptr %10) #7
  %12 = load i8, ptr %2, align 8
  %13 = and i8 %12, 1
  %.not10 = icmp eq i8 %13, 0
  br i1 %.not10, label %17, label %14

14:                                               ; preds = %9
  %15 = load ptr, ptr @stderr, align 8
  %16 = tail call i64 @fwrite(ptr nonnull @.str.122, i64 4, i64 1, ptr %15) #7
  br label %25

17:                                               ; preds = %9
  %18 = load i64, ptr %0, align 8
  %19 = icmp eq i64 %18, -9223372036854775808
  %20 = load ptr, ptr @stderr, align 8
  br i1 %19, label %21, label %23

21:                                               ; preds = %17
  %22 = tail call i64 @fwrite(ptr nonnull @.str.123, i64 5, i64 1, ptr %20) #7
  br label %25

23:                                               ; preds = %17
  %24 = tail call i32 (ptr, ptr, ...) @fprintf(ptr noundef %20, ptr noundef nonnull @.str.124, i64 noundef %18) #8
  br label %25

25:                                               ; preds = %21, %23, %14
  %26 = getelementptr inbounds i8, ptr %0, i64 17
  %27 = load i8, ptr %26, align 1
  %28 = and i8 %27, 1
  %.not11 = icmp eq i8 %28, 0
  br i1 %.not11, label %32, label %29

29:                                               ; preds = %25
  %30 = load ptr, ptr @stderr, align 8
  %31 = tail call i64 @fwrite(ptr nonnull @.str.125, i64 3, i64 1, ptr %30) #7
  br label %41

32:                                               ; preds = %25
  %33 = getelementptr inbounds i8, ptr %0, i64 8
  %34 = load i64, ptr %33, align 8
  %35 = icmp eq i64 %34, 9223372036854775807
  %36 = load ptr, ptr @stderr, align 8
  br i1 %35, label %37, label %39

37:                                               ; preds = %32
  %38 = tail call i64 @fwrite(ptr nonnull @.str.126, i64 4, i64 1, ptr %36) #7
  br label %41

39:                                               ; preds = %32
  %40 = tail call i32 (ptr, ptr, ...) @fprintf(ptr noundef %36, ptr noundef nonnull @.str.127, i64 noundef %34) #8
  br label %41

41:                                               ; preds = %37, %39, %5, %29
  ret void
}